target datalayout = "e-m:e-p270:32:32-p271:32:32-p272:64:64-i64:64-i128:128-f80:128-n8:16:32:64-S128"
target triple = "x86_64-pc-linux-gnu"

%struct.pmix_object_t = type { %union.pthread_mutex_t, ptr, i32, %struct.pmix_tma }
%union.pthread_mutex_t = type { %struct.__pthread_mutex_s }
%struct.__pthread_mutex_s = type { i32, i32, i32, i32, i32, i16, i16, %struct.__pthread_internal_list }
%struct.__pthread_internal_list = type { ptr, ptr }
%struct.pmix_tma = type { ptr, ptr, ptr, ptr, ptr, ptr, ptr, ptr }
%struct.pmix_list_item_t = type { %struct.pmix_object_t, ptr, ptr, i32 }
%struct.pmix_mca_base_component_repository_item_t = type { %struct.pmix_list_item_t, ptr, [32 x i8], [64 x i8], ptr, ptr, ptr, ptr, i32 }

; Function Attrs: nounwind uwtable
define internal void @ri_constructor(ptr noundef %0) #0 {
  %2 = alloca ptr, align 8
  store ptr %0, ptr %2, align 8, !tbaa !3
  %3 = load ptr, ptr %2, align 8, !tbaa !3
  %4 = getelementptr inbounds nuw %struct.pmix_mca_base_component_repository_item_t, ptr %3, i32 0, i32 2
  %5 = getelementptr inbounds [32 x i8], ptr %4, i64 0, i64 0
  call void @llvm.memset.p0.i64(ptr align 8 %5, i8 0, i64 32, i1 false)
  %6 = load ptr, ptr %2, align 8, !tbaa !3
  %7 = getelementptr inbounds nuw %struct.pmix_mca_base_component_repository_item_t, ptr %6, i32 0, i32 6
  store ptr null, ptr %7, align 8, !tbaa !8
  %8 = load ptr, ptr %2, align 8, !tbaa !3
  %9 = getelementptr inbounds nuw %struct.pmix_mca_base_component_repository_item_t, ptr %8, i32 0, i32 7
  store ptr null, ptr %9, align 8, !tbaa !19
  %10 = load ptr, ptr %2, align 8, !tbaa !3
  %11 = getelementptr inbounds nuw %struct.pmix_mca_base_component_repository_item_t, ptr %10, i32 0, i32 4
  store ptr null, ptr %11, align 8, !tbaa !20
  ret void
}