; Function Attrs: mustprogress nofree norecurse nosync nounwind willreturn memory(argmem: write) uwtable
define internal void @ri_constructor(ptr noundef writeonly captures(none) initializes((152, 184), (248, 256), (264, 280)) %0) #0 {
  %2 = getelementptr inbounds nuw i8, ptr %0, i64 152
  tail call void @llvm.memset.p0.i64(ptr noundef nonnull align 8 dereferenceable(32) %2, i8 0, i64 32, i1 false)
  %3 = getelementptr inbounds nuw i8, ptr %0, i64 264
  %4 = getelementptr inbounds nuw i8, ptr %0, i64 248
  store ptr null, ptr %4, align 8, !tbaa !3
  tail call void @llvm.memset.p0.i64(ptr noundef nonnull align 8 dereferenceable(16) %3, i8 0, i64 16, i1 false)
  ret void
}